; Function Attrs: mustprogress nofree norecurse nosync nounwind willreturn memory(argmem: read) uwtable
define hidden i32 @PyExpat_XML_GetIdAttributeIndex(ptr noundef readonly %0) local_unnamed_addr #5 {
  %2 = icmp eq ptr %0, null
  br i1 %2, label %6, label %3

3:                                                ; preds = %1
  %4 = getelementptr inbounds nuw i8, ptr %0, i64 744
  %5 = load i32, ptr %4, align 8, !tbaa !189
  br label %6

6:                                                ; preds = %1, %3
  %.0 = phi i32 [ %5, %3 ], [ -1, %1 ]
  ret i32 %.0
}